target datalayout = "e-m:e-p270:32:32-p271:32:32-p272:64:64-i64:64-i128:128-f80:128-n8:16:32:64-S128"
target triple = "x86_64-pc-linux-gnu"

%struct.AVCodecContext = type { ptr, i32, i32, ptr, i32, i32, ptr, ptr, ptr, i64, i32, i32, ptr, i32, %struct.AVRational, %struct.AVRational, %struct.AVRational, i32, i32, i32, i32, i32, %struct.AVRational, i32, i32, i32, i32, i32, i32, i32, i32, i32, i32, i32, ptr, ptr, i32, float, float, float, float, float, float, float, float, float, i32, i32, i32, i32, i32, i32, i32, i32, i32, i32, i32, i32, ptr, ptr, ptr, i32, i32, i32, i32, i32, i32, i32, i32, i32, i32, %struct.AVChannelLayout, i32, i32, i32, i32, i32, i32, i32, i32, ptr, i32, i32, i32, float, float, i32, i32, i32, i32, i32, ptr, i64, i64, float, float, i32, i32, ptr, ptr, i32, i32, i32, i32, i32, ptr, ptr, ptr, ptr, i32, i32, [8 x i64], i32, i32, i32, i32, i32, i32, i32, ptr, ptr, i32, i32, i32, i32, i32, i32, i32, i32, i32, i32, ptr, ptr, i32, i32, ptr, ptr, ptr, ptr, i32, i32, i64, i32, i32, i64, ptr, i64, ptr, i32, ptr, i32 }
%struct.AVRational = type { i32, i32 }
%struct.AVChannelLayout = type { i32, i32, %union.anon.0, ptr }
%union.anon.0 = type { i64 }
%struct.vorbis_enc_context = type { i32, i32, [2 x i32], [2 x ptr], [2 x ptr], [2 x ptr], i32, ptr, ptr, ptr, ptr, ptr, float, %struct.AudioFrameQueue, %struct.FFBufQueue, i32, ptr, i32, ptr, i32, ptr, i32, ptr, i32, ptr, i64, ptr }
%struct.AudioFrameQueue = type { ptr, i32, i32, ptr, i32, i32 }
%struct.FFBufQueue = type { [64 x ptr], i16, i16 }

@ff_vorbis_vwin = external hidden constant [8 x ptr], align 16

; Function Attrs: cold nounwind optsize uwtable
define internal i32 @dsp_init(ptr noundef %0, ptr noundef %1) #0 {
  %3 = alloca i32, align 4
  %4 = alloca ptr, align 8
  %5 = alloca ptr, align 8
  %6 = alloca i32, align 4
  %7 = alloca float, align 4
  %8 = alloca i32, align 4
  store ptr %0, ptr %4, align 8, !tbaa !4
  store ptr %1, ptr %5, align 8, !tbaa !29
  call void @llvm.lifetime.start.p0(i64 4, ptr %6) #12
  store i32 0, ptr %6, align 4, !tbaa !32
  call void @llvm.lifetime.start.p0(i64 4, ptr %7) #12
  store float 1.000000e+00, ptr %7, align 4, !tbaa !81
  %9 = load ptr, ptr %4, align 8, !tbaa !4
  %10 = getelementptr inbounds nuw %struct.AVCodecContext, ptr %9, i32 0, i32 10
  %11 = load i32, ptr %10, align 8, !tbaa !34
  %12 = and i32 %11, 8388608
  %13 = call ptr @avpriv_float_dsp_alloc(i32 noundef %12)
  %14 = load ptr, ptr %5, align 8, !tbaa !29
  %15 = getelementptr inbounds nuw %struct.vorbis_enc_context, ptr %14, i32 0, i32 26
  store ptr %13, ptr %15, align 8, !tbaa !193
  %16 = load ptr, ptr %5, align 8, !tbaa !29
  %17 = getelementptr inbounds nuw %struct.vorbis_enc_context, ptr %16, i32 0, i32 26
  %18 = load ptr, ptr %17, align 8, !tbaa !193
  %19 = icmp ne ptr %18, null
  br i1 %19, label %21, label %20

20:                                               ; preds = %2
  store i32 -12, ptr %3, align 4
  store i32 1, ptr %8, align 4
  br label %78

21:                                               ; preds = %2
  %22 = load ptr, ptr %5, align 8, !tbaa !29
  %23 = getelementptr inbounds nuw %struct.vorbis_enc_context, ptr %22, i32 0, i32 2
  %24 = getelementptr inbounds [2 x i32], ptr %23, i64 0, i64 0
  %25 = load i32, ptr %24, align 8, !tbaa !32
  %26 = sub nsw i32 %25, 6
  %27 = sext i32 %26 to i64
  %28 = getelementptr inbounds [8 x ptr], ptr @ff_vorbis_vwin, i64 0, i64 %27
  %29 = load ptr, ptr %28, align 8, !tbaa !85
  %30 = load ptr, ptr %5, align 8, !tbaa !29
  %31 = getelementptr inbounds nuw %struct.vorbis_enc_context, ptr %30, i32 0, i32 5
  %32 = getelementptr inbounds [2 x ptr], ptr %31, i64 0, i64 0
  store ptr %29, ptr %32, align 8, !tbaa !85
  %33 = load ptr, ptr %5, align 8, !tbaa !29
  %34 = getelementptr inbounds nuw %struct.vorbis_enc_context, ptr %33, i32 0, i32 2
  %35 = getelementptr inbounds [2 x i32], ptr %34, i64 0, i64 1
  %36 = load i32, ptr %35, align 4, !tbaa !32
  %37 = sub nsw i32 %36, 6
  %38 = sext i32 %37 to i64
  %39 = getelementptr inbounds [8 x ptr], ptr @ff_vorbis_vwin, i64 0, i64 %38
  %40 = load ptr, ptr %39, align 8, !tbaa !85
  %41 = load ptr, ptr %5, align 8, !tbaa !29
  %42 = getelementptr inbounds nuw %struct.vorbis_enc_context, ptr %41, i32 0, i32 5
  %43 = getelementptr inbounds [2 x ptr], ptr %42, i64 0, i64 1
  store ptr %40, ptr %43, align 8, !tbaa !85
  %44 = load ptr, ptr %5, align 8, !tbaa !29
  %45 = getelementptr inbounds nuw %struct.vorbis_enc_context, ptr %44, i32 0, i32 3
  %46 = getelementptr inbounds [2 x ptr], ptr %45, i64 0, i64 0
  %47 = load ptr, ptr %5, align 8, !tbaa !29
  %48 = getelementptr inbounds nuw %struct.vorbis_enc_context, ptr %47, i32 0, i32 4
  %49 = getelementptr inbounds [2 x ptr], ptr %48, i64 0, i64 0
  %50 = load ptr, ptr %5, align 8, !tbaa !29
  %51 = getelementptr inbounds nuw %struct.vorbis_enc_context, ptr %50, i32 0, i32 2
  %52 = getelementptr inbounds [2 x i32], ptr %51, i64 0, i64 0
  %53 = load i32, ptr %52, align 8, !tbaa !32
  %54 = sub nsw i32 %53, 1
  %55 = shl i32 1, %54
  %56 = call i32 @av_tx_init(ptr noundef %46, ptr noundef %49, i32 noundef 1, i32 noundef 0, i32 noundef %55, ptr noundef %7, i64 noundef 0)
  store i32 %56, ptr %6, align 4, !tbaa !32
  %57 = icmp slt i32 %56, 0
  br i1 %57, label %58, label %60

58:                                               ; preds = %21
  %59 = load i32, ptr %6, align 4, !tbaa !32
  store i32 %59, ptr %3, align 4
  store i32 1, ptr %8, align 4
  br label %78

60:                                               ; preds = %21
  %61 = load ptr, ptr %5, align 8, !tbaa !29
  %62 = getelementptr inbounds nuw %struct.vorbis_enc_context, ptr %61, i32 0, i32 3
  %63 = getelementptr inbounds [2 x ptr], ptr %62, i64 0, i64 1
  %64 = load ptr, ptr %5, align 8, !tbaa !29
  %65 = getelementptr inbounds nuw %struct.vorbis_enc_context, ptr %64, i32 0, i32 4
  %66 = getelementptr inbounds [2 x ptr], ptr %65, i64 0, i64 1
  %67 = load ptr, ptr %5, align 8, !tbaa !29
  %68 = getelementptr inbounds nuw %struct.vorbis_enc_context, ptr %67, i32 0, i32 2
  %69 = getelementptr inbounds [2 x i32], ptr %68, i64 0, i64 1
  %70 = load i32, ptr %69, align 4, !tbaa !32
  %71 = sub nsw i32 %70, 1
  %72 = shl i32 1, %71
  %73 = call i32 @av_tx_init(ptr noundef %63, ptr noundef %66, i32 noundef 1, i32 noundef 0, i32 noundef %72, ptr noundef %7, i64 noundef 0)
  store i32 %73, ptr %6, align 4, !tbaa !32
  %74 = icmp slt i32 %73, 0
  br i1 %74, label %75, label %77

75:                                               ; preds = %60
  %76 = load i32, ptr %6, align 4, !tbaa !32
  store i32 %76, ptr %3, align 4
  store i32 1, ptr %8, align 4
  br label %78

77:                                               ; preds = %60
  store i32 0, ptr %3, align 4
  store i32 1, ptr %8, align 4
  br label %78

78:                                               ; preds = %77, %75, %58, %20
  call void @llvm.lifetime.end.p0(i64 4, ptr %7) #12
  call void @llvm.lifetime.end.p0(i64 4, ptr %6) #12
  %79 = load i32, ptr %3, align 4
  ret i32 %79
}