; Function Attrs: cold nounwind optsize uwtable
define internal fastcc range(i32 -2147483648, 1) i32 @dsp_init(i32 %.64.val, ptr noundef initializes((760, 768)) %0) unnamed_addr #0 {
  %2 = alloca float, align 4
  call void @llvm.lifetime.start.p0(i64 4, ptr nonnull %2) #12
  store float 1.000000e+00, ptr %2, align 4, !tbaa !69
  %3 = and i32 %.64.val, 8388608
  %4 = tail call ptr @avpriv_float_dsp_alloc(i32 noundef %3) #12
  %5 = getelementptr inbounds nuw i8, ptr %0, i64 760
  store ptr %4, ptr %5, align 8, !tbaa !192
  %.not = icmp eq ptr %4, null
  br i1 %.not, label %34, label %6

6:                                                ; preds = %1
  %7 = getelementptr inbounds nuw i8, ptr %0, i64 8
  %8 = load i32, ptr %7, align 8, !tbaa !44
  %9 = add nsw i32 %8, -6
  %10 = sext i32 %9 to i64
  %11 = getelementptr inbounds [8 x ptr], ptr @ff_vorbis_vwin, i64 0, i64 %10
  %12 = load ptr, ptr %11, align 8, !tbaa !191
  %13 = getelementptr inbounds nuw i8, ptr %0, i64 48
  store ptr %12, ptr %13, align 8, !tbaa !191
  %14 = getelementptr inbounds nuw i8, ptr %0, i64 12
  %15 = load i32, ptr %14, align 4, !tbaa !44
  %16 = add nsw i32 %15, -6
  %17 = sext i32 %16 to i64
  %18 = getelementptr inbounds [8 x ptr], ptr @ff_vorbis_vwin, i64 0, i64 %17
  %19 = load ptr, ptr %18, align 8, !tbaa !191
  %20 = getelementptr inbounds nuw i8, ptr %0, i64 56
  store ptr %19, ptr %20, align 8, !tbaa !191
  %21 = getelementptr inbounds nuw i8, ptr %0, i64 16
  %22 = getelementptr inbounds nuw i8, ptr %0, i64 32
  %23 = add nsw i32 %8, -1
  %24 = shl nuw i32 1, %23
  %25 = call i32 @av_tx_init(ptr noundef nonnull %21, ptr noundef nonnull %22, i32 noundef 1, i32 noundef 0, i32 noundef %24, ptr noundef nonnull %2, i64 noundef 0) #12
  %26 = icmp slt i32 %25, 0
  br i1 %26, label %34, label %27

27:                                               ; preds = %6
  %28 = getelementptr inbounds nuw i8, ptr %0, i64 24
  %29 = getelementptr inbounds nuw i8, ptr %0, i64 40
  %30 = load i32, ptr %14, align 4, !tbaa !44
  %31 = add nsw i32 %30, -1
  %32 = shl nuw i32 1, %31
  %33 = call i32 @av_tx_init(ptr noundef nonnull %28, ptr noundef nonnull %29, i32 noundef 1, i32 noundef 0, i32 noundef %32, ptr noundef nonnull %2, i64 noundef 0) #12
  %. = call i32 @llvm.smin.i32(i32 %33, i32 0)
  br label %34

34:                                               ; preds = %27, %6, %1
  %.0 = phi i32 [ -12, %1 ], [ %25, %6 ], [ %., %27 ]
  call void @llvm.lifetime.end.p0(i64 4, ptr nonnull %2) #12
  ret i32 %.0
}